target datalayout = "e-m:e-p270:32:32-p271:32:32-p272:64:64-i64:64-i128:128-f80:128-n8:16:32:64-S128"
target triple = "x86_64-pc-linux-gnu"

@.str.268 = private unnamed_addr constant [7 x i8] c"qscale\00", align 1
@.str.605 = private unnamed_addr constant [47 x i8] c"Please use -q:a or -q:v, -qscale is ambiguous\0A\00", align 1
@.str.606 = private unnamed_addr constant [4 x i8] c"q:v\00", align 1
@.str.607 = private unnamed_addr constant [4 x i8] c"q%s\00", align 1

; Function Attrs: nounwind uwtable
define internal i32 @opt_qscale(ptr noundef %0, ptr noundef %1, ptr noundef %2) #0 {
  %4 = alloca i32, align 4
  %5 = alloca ptr, align 8
  %6 = alloca ptr, align 8
  %7 = alloca ptr, align 8
  %8 = alloca ptr, align 8
  %9 = alloca ptr, align 8
  %10 = alloca i32, align 4
  %11 = alloca i32, align 4
  store ptr %0, ptr %5, align 8, !tbaa !26
  store ptr %1, ptr %6, align 8, !tbaa !23
  store ptr %2, ptr %7, align 8, !tbaa !23
  call void @llvm.lifetime.start.p0(i64 8, ptr %8) #12
  %12 = load ptr, ptr %5, align 8, !tbaa !26
  store ptr %12, ptr %8, align 8, !tbaa !151
  call void @llvm.lifetime.start.p0(i64 8, ptr %9) #12
  call void @llvm.lifetime.start.p0(i64 4, ptr %10) #12
  %13 = load ptr, ptr %6, align 8, !tbaa !23
  %14 = call i32 @strcmp(ptr noundef %13, ptr noundef @.str.268) #13
  %15 = icmp ne i32 %14, 0
  br i1 %15, label %20, label %16

16:                                               ; preds = %3
  call void (ptr, i32, ptr, ...) @av_log(ptr noundef null, i32 noundef 24, ptr noundef @.str.605)
  %17 = load ptr, ptr %8, align 8, !tbaa !151
  %18 = load ptr, ptr %7, align 8, !tbaa !23
  %19 = call i32 @parse_option(ptr noundef %17, ptr noundef @.str.606, ptr noundef %18, ptr noundef @options)
  store i32 %19, ptr %4, align 4
  store i32 1, ptr %11, align 4
  br label %34

20:                                               ; preds = %3
  %21 = load ptr, ptr %6, align 8, !tbaa !23
  %22 = getelementptr inbounds i8, ptr %21, i64 6
  %23 = call ptr (ptr, ...) @av_asprintf(ptr noundef @.str.607, ptr noundef %22)
  store ptr %23, ptr %9, align 8, !tbaa !23
  %24 = load ptr, ptr %9, align 8, !tbaa !23
  %25 = icmp ne ptr %24, null
  br i1 %25, label %27, label %26

26:                                               ; preds = %20
  store i32 -12, ptr %4, align 4
  store i32 1, ptr %11, align 4
  br label %34

27:                                               ; preds = %20
  %28 = load ptr, ptr %8, align 8, !tbaa !151
  %29 = load ptr, ptr %9, align 8, !tbaa !23
  %30 = load ptr, ptr %7, align 8, !tbaa !23
  %31 = call i32 @parse_option(ptr noundef %28, ptr noundef %29, ptr noundef %30, ptr noundef @options)
  store i32 %31, ptr %10, align 4, !tbaa !16
  %32 = load ptr, ptr %9, align 8, !tbaa !23
  call void @av_free(ptr noundef %32)
  %33 = load i32, ptr %10, align 4, !tbaa !16
  store i32 %33, ptr %4, align 4
  store i32 1, ptr %11, align 4
  br label %34

34:                                               ; preds = %27, %26, %16
  call void @llvm.lifetime.end.p0(i64 4, ptr %10) #12
  call void @llvm.lifetime.end.p0(i64 8, ptr %9) #12
  call void @llvm.lifetime.end.p0(i64 8, ptr %8) #12
  %35 = load i32, ptr %4, align 4
  ret i32 %35
}