; Function Attrs: nounwind uwtable
define internal i32 @opt_qscale(ptr noundef %0, ptr noundef %1, ptr noundef %2) #0 {
  %4 = tail call i32 @strcmp(ptr noundef nonnull dereferenceable(1) %1, ptr noundef nonnull dereferenceable(7) @.str.268) #17
  %.not = icmp eq i32 %4, 0
  br i1 %.not, label %5, label %7

5:                                                ; preds = %3
  tail call void (ptr, i32, ptr, ...) @av_log(ptr noundef null, i32 noundef 24, ptr noundef nonnull @.str.605) #15
  %6 = tail call i32 @parse_option(ptr noundef %0, ptr noundef nonnull @.str.606, ptr noundef %2, ptr noundef nonnull @options) #15
  br label %12

7:                                                ; preds = %3
  %8 = getelementptr inbounds nuw i8, ptr %1, i64 6
  %9 = tail call ptr (ptr, ...) @av_asprintf(ptr noundef nonnull @.str.607, ptr noundef nonnull %8) #15
  %.not12 = icmp eq ptr %9, null
  br i1 %.not12, label %12, label %10

10:                                               ; preds = %7
  %11 = tail call i32 @parse_option(ptr noundef %0, ptr noundef nonnull %9, ptr noundef %2, ptr noundef nonnull @options) #15
  tail call void @av_free(ptr noundef nonnull %9) #15
  br label %12

12:                                               ; preds = %7, %10, %5
  %.0 = phi i32 [ %11, %10 ], [ %6, %5 ], [ -12, %7 ]
  ret i32 %.0
}